; Function Attrs: nounwind uwtable
define void @Abc_NtkSplitLarge(ptr noundef readonly captures(none) %0, i32 noundef %1, i32 noundef %2) local_unnamed_addr #0 {
  %4 = getelementptr i8, ptr %0, i64 32
  %.val22 = load ptr, ptr %4, align 8, !tbaa !17
  %5 = getelementptr i8, ptr %.val22, i64 4
  %.val22.val = load i32, ptr %5, align 4, !tbaa !31
  %6 = icmp sgt i32 %.val22.val, 0
  br i1 %6, label %.lr.ph.preheader, label %.critedge

.lr.ph.preheader:                                 ; preds = %3
  %7 = zext nneg i32 %.val22.val to i64
  br label %.lr.ph

.lr.ph:                                           ; preds = %.lr.ph.preheader, %27
  %indvars.iv = phi i64 [ 0, %.lr.ph.preheader ], [ %indvars.iv.next, %27 ]
  %8 = phi ptr [ %.val22, %.lr.ph.preheader ], [ %28, %27 ]
  %9 = getelementptr i8, ptr %8, i64 8
  %.val19.val = load ptr, ptr %9, align 8, !tbaa !33
  %10 = getelementptr inbounds nuw ptr, ptr %.val19.val, i64 %indvars.iv
  %11 = load ptr, ptr %10, align 8, !tbaa !34
  %12 = icmp eq ptr %11, null
  br i1 %12, label %27, label %13

13:                                               ; preds = %.lr.ph
  %14 = getelementptr i8, ptr %11, i64 20
  %.val20 = load i32, ptr %14, align 4
  %15 = and i32 %.val20, 15
  %.not = icmp eq i32 %15, 7
  br i1 %.not, label %16, label %27

16:                                               ; preds = %13
  %17 = icmp eq i64 %indvars.iv, %7
  br i1 %17, label %.critedge, label %18

18:                                               ; preds = %16
  %19 = getelementptr inbounds nuw i8, ptr %11, i64 56
  %20 = load ptr, ptr %19, align 8, !tbaa !35
  %21 = tail call i32 @Abc_SopGetCubeNum(ptr noundef %20) #20
  %22 = getelementptr i8, ptr %11, i64 28
  %.val21 = load i32, ptr %22, align 4, !tbaa !78
  %23 = icmp sgt i32 %.val21, %1
  %24 = icmp sgt i32 %21, 1
  %or.cond = select i1 %23, i1 %24, i1 false
  %25 = icmp sgt i32 %21, %2
  %or.cond18 = select i1 %or.cond, i1 true, i1 %25
  br i1 %or.cond18, label %26, label %27

26:                                               ; preds = %18
  tail call void @Abc_NodeSplitLarge(ptr noundef nonnull %11)
  br label %27

27:                                               ; preds = %18, %13, %.lr.ph, %26
  %indvars.iv.next = add nuw nsw i64 %indvars.iv, 1
  %28 = load ptr, ptr %4, align 8, !tbaa !17
  %29 = getelementptr i8, ptr %28, i64 4
  %.val = load i32, ptr %29, align 4, !tbaa !31
  %30 = sext i32 %.val to i64
  %31 = icmp slt i64 %indvars.iv.next, %30
  br i1 %31, label %.lr.ph, label %.critedge, !llvm.loop !83

.critedge:                                        ; preds = %16, %27, %3
  ret void
}